target datalayout = "e-m:e-p270:32:32-p271:32:32-p272:64:64-i64:64-i128:128-f80:128-n8:16:32:64-S128"
target triple = "x86_64-pc-linux-gnu"

%class.anon = type { i8 }
%struct.Proto = type { i8, i8, i8, i8, i8, i8, i8, i8, ptr, ptr, ptr, ptr, ptr, i64, ptr, ptr, ptr, ptr, ptr, ptr, ptr, ptr, ptr, ptr, i32, i32, i32, i32, i32, i32, i32, i32, i32, i32 }

; Function Attrs: inlinehint mustprogress nounwind uwtable
define internal noundef ptr @"_ZZN4Luau7CodeGen9onDisableEP9lua_StateP5ProtoENK3$_0cvPFbPvP8lua_PageP8GCObjectEEv"(ptr noundef nonnull align 1 dereferenceable(1) %0) #5 align 2 {
  %2 = alloca ptr, align 8
  store ptr %0, ptr %2, align 8, !tbaa !29
  ret ptr @"_ZZN4Luau7CodeGen9onDisableEP9lua_StateP5ProtoEN3$_08__invokeEPvP8lua_PageP8GCObject"
}

; Function Attrs: mustprogress uwtable
define dso_local void @_ZN4Luau7CodeGen9onDisableEP9lua_StateP5Proto(ptr noundef %0, ptr noundef %1) #2 {
  %3 = alloca ptr, align 8
  %4 = alloca ptr, align 8
  %5 = alloca %class.anon, align 1
  store ptr %0, ptr %3, align 8, !tbaa !36
  store ptr %1, ptr %4, align 8, !tbaa !38
  %6 = load ptr, ptr %4, align 8, !tbaa !38
  %7 = getelementptr inbounds nuw %struct.Proto, ptr %6, i32 0, i32 11
  %8 = load ptr, ptr %7, align 8, !tbaa !40
  %9 = load ptr, ptr %4, align 8, !tbaa !38
  %10 = getelementptr inbounds nuw %struct.Proto, ptr %9, i32 0, i32 9
  %11 = load ptr, ptr %10, align 8, !tbaa !51
  %12 = icmp eq ptr %8, %11
  br i1 %12, label %13, label %14

13:                                               ; preds = %2
  br label %25

14:                                               ; preds = %2
  %15 = load ptr, ptr %4, align 8, !tbaa !38
  %16 = getelementptr inbounds nuw %struct.Proto, ptr %15, i32 0, i32 9
  %17 = load ptr, ptr %16, align 8, !tbaa !51
  %18 = load ptr, ptr %4, align 8, !tbaa !38
  %19 = getelementptr inbounds nuw %struct.Proto, ptr %18, i32 0, i32 11
  store ptr %17, ptr %19, align 8, !tbaa !40
  %20 = load ptr, ptr %4, align 8, !tbaa !38
  %21 = getelementptr inbounds nuw %struct.Proto, ptr %20, i32 0, i32 13
  store i64 0, ptr %21, align 8, !tbaa !52
  %22 = load ptr, ptr %3, align 8, !tbaa !36
  %23 = load ptr, ptr %4, align 8, !tbaa !38
  call void @llvm.lifetime.start.p0(i64 1, ptr %5) #14
  %24 = call noundef ptr @"_ZZN4Luau7CodeGen9onDisableEP9lua_StateP5ProtoENK3$_0cvPFbPvP8lua_PageP8GCObjectEEv"(ptr noundef nonnull align 1 dereferenceable(1) %5) #14
  call void @_Z13luaM_visitgcoP9lua_StatePvPFbS1_P8lua_PageP8GCObjectE(ptr noundef %22, ptr noundef %23, ptr noundef %24)
  call void @llvm.lifetime.end.p0(i64 1, ptr %5) #14
  br label %25

25:                                               ; preds = %14, %13
  ret void
}