; Function Attrs: mustprogress uwtable
define dso_local void @_ZN4Luau7CodeGen9onDisableEP9lua_StateP5Proto(ptr noundef %0, ptr noundef %1) local_unnamed_addr #0 {
  %3 = getelementptr inbounds nuw i8, ptr %1, i64 32
  %4 = load ptr, ptr %3, align 8, !tbaa !18
  %5 = getelementptr inbounds nuw i8, ptr %1, i64 16
  %6 = load ptr, ptr %5, align 8, !tbaa !29
  %7 = icmp eq ptr %4, %6
  br i1 %7, label %10, label %8

8:                                                ; preds = %2
  store ptr %6, ptr %3, align 8, !tbaa !18
  %9 = getelementptr inbounds nuw i8, ptr %1, i64 48
  store i64 0, ptr %9, align 8, !tbaa !30
  tail call void @_Z13luaM_visitgcoP9lua_StatePvPFbS1_P8lua_PageP8GCObjectE(ptr noundef %0, ptr noundef nonnull %1, ptr noundef nonnull @"_ZZN4Luau7CodeGen9onDisableEP9lua_StateP5ProtoEN3$_08__invokeEPvP8lua_PageP8GCObject")
  br label %10

10:                                               ; preds = %2, %8
  ret void
}